target datalayout = "e-m:e-p270:32:32-p271:32:32-p272:64:64-i64:64-i128:128-f80:128-n8:16:32:64-S128"
target triple = "x86_64-pc-linux-gnu"

%struct.Dar_Lib_t_ = type { ptr, i32, i32, [222 x i32], [222 x ptr], ptr, i32, ptr, [222 x ptr], ptr, [222 x ptr], ptr, [222 x ptr], [222 x i32], [222 x ptr], ptr, i32, i32, i32, [222 x i32], [222 x ptr], ptr, i32, [222 x i32], [222 x ptr], ptr, i32, ptr, i32, ptr, ptr, ptr, ptr, ptr }
%struct.Dar_LibObj_t_ = type { i64 }
%struct.Vec_Int_t_ = type { i32, i32, ptr }

@__const.Dar_LibAlloc.uTruths = private unnamed_addr constant [4 x i32] [i32 43690, i32 52428, i32 61680, i32 65280], align 16

; Function Attrs: nounwind uwtable
define internal ptr @Dar_LibObj(ptr noundef %0, i32 noundef %1) #0 {
  %3 = alloca ptr, align 8
  %4 = alloca i32, align 4
  store ptr %0, ptr %3, align 8
  store i32 %1, ptr %4, align 4
  %5 = load ptr, ptr %3, align 8
  %6 = getelementptr inbounds %struct.Dar_Lib_t_, ptr %5, i32 0, i32 0
  %7 = load ptr, ptr %6, align 8
  %8 = load i32, ptr %4, align 4
  %9 = sext i32 %8 to i64
  %10 = getelementptr inbounds %struct.Dar_LibObj_t_, ptr %7, i64 %9
  ret ptr %10
}

; Function Attrs: nounwind uwtable
define internal void @Vec_IntFree(ptr noundef %0) #0 {
  %2 = alloca ptr, align 8
  store ptr %0, ptr %2, align 8
  %3 = load ptr, ptr %2, align 8
  %4 = getelementptr inbounds %struct.Vec_Int_t_, ptr %3, i32 0, i32 2
  %5 = load ptr, ptr %4, align 8
  %6 = icmp ne ptr %5, null
  br i1 %6, label %7, label %13

7:                                                ; preds = %1
  %8 = load ptr, ptr %2, align 8
  %9 = getelementptr inbounds %struct.Vec_Int_t_, ptr %8, i32 0, i32 2
  %10 = load ptr, ptr %9, align 8
  call void @free(ptr noundef %10) #9
  %11 = load ptr, ptr %2, align 8
  %12 = getelementptr inbounds %struct.Vec_Int_t_, ptr %11, i32 0, i32 2
  store ptr null, ptr %12, align 8
  br label %14

13:                                               ; preds = %1
  br label %14

14:                                               ; preds = %13, %7
  %15 = load ptr, ptr %2, align 8
  %16 = icmp ne ptr %15, null
  br i1 %16, label %17, label %19

17:                                               ; preds = %14
  %18 = load ptr, ptr %2, align 8
  call void @free(ptr noundef %18) #9
  store ptr null, ptr %2, align 8
  br label %20

19:                                               ; preds = %14
  br label %20

20:                                               ; preds = %19, %17
  ret void
}

; Function Attrs: nounwind uwtable
define void @Dar_LibAddNode(ptr noundef %0, i32 noundef %1, i32 noundef %2, i32 noundef %3, i32 noundef %4) #0 {
  %6 = alloca ptr, align 8
  %7 = alloca i32, align 4
  %8 = alloca i32, align 4
  %9 = alloca i32, align 4
  %10 = alloca i32, align 4
  %11 = alloca ptr, align 8
  %12 = alloca ptr, align 8
  %13 = alloca ptr, align 8
  store ptr %0, ptr %6, align 8
  store i32 %1, ptr %7, align 4
  store i32 %2, ptr %8, align 4
  store i32 %3, ptr %9, align 4
  store i32 %4, ptr %10, align 4
  %14 = load ptr, ptr %6, align 8
  %15 = load i32, ptr %7, align 4
  %16 = call ptr @Dar_LibObj(ptr noundef %14, i32 noundef %15)
  store ptr %16, ptr %11, align 8
  %17 = load ptr, ptr %6, align 8
  %18 = load i32, ptr %8, align 4
  %19 = call ptr @Dar_LibObj(ptr noundef %17, i32 noundef %18)
  store ptr %19, ptr %12, align 8
  %20 = load ptr, ptr %6, align 8
  %21 = getelementptr inbounds %struct.Dar_Lib_t_, ptr %20, i32 0, i32 0
  %22 = load ptr, ptr %21, align 8
  %23 = load ptr, ptr %6, align 8
  %24 = getelementptr inbounds %struct.Dar_Lib_t_, ptr %23, i32 0, i32 2
  %25 = load i32, ptr %24, align 4
  %26 = add nsw i32 %25, 1
  store i32 %26, ptr %24, align 4
  %27 = sext i32 %25 to i64
  %28 = getelementptr inbounds %struct.Dar_LibObj_t_, ptr %22, i64 %27
  store ptr %28, ptr %13, align 8
  %29 = load i32, ptr %7, align 4
  %30 = load ptr, ptr %13, align 8
  %31 = zext i32 %29 to i64
  %32 = load i64, ptr %30, align 4
  %33 = and i64 %31, 65535
  %34 = and i64 %32, -65536
  %35 = or i64 %34, %33
  store i64 %35, ptr %30, align 4
  %36 = load i32, ptr %8, align 4
  %37 = load ptr, ptr %13, align 8
  %38 = zext i32 %36 to i64
  %39 = load i64, ptr %37, align 4
  %40 = and i64 %38, 65535
  %41 = shl i64 %40, 16
  %42 = and i64 %39, -4294901761
  %43 = or i64 %42, %41
  store i64 %43, ptr %37, align 4
  %44 = load i32, ptr %9, align 4
  %45 = load ptr, ptr %13, align 8
  %46 = zext i32 %44 to i64
  %47 = load i64, ptr %45, align 4
  %48 = and i64 %46, 1
  %49 = shl i64 %48, 32
  %50 = and i64 %47, -4294967297
  %51 = or i64 %50, %49
  store i64 %51, ptr %45, align 4
  %52 = load i32, ptr %10, align 4
  %53 = load ptr, ptr %13, align 8
  %54 = zext i32 %52 to i64
  %55 = load i64, ptr %53, align 4
  %56 = and i64 %54, 1
  %57 = shl i64 %56, 33
  %58 = and i64 %55, -8589934593
  %59 = or i64 %58, %57
  store i64 %59, ptr %53, align 4
  %60 = load i32, ptr %9, align 4
  %61 = load ptr, ptr %11, align 8
  %62 = load i64, ptr %61, align 4
  %63 = lshr i64 %62, 34
  %64 = and i64 %63, 1
  %65 = trunc i64 %64 to i32
  %66 = xor i32 %60, %65
  %67 = load i32, ptr %10, align 4
  %68 = load ptr, ptr %12, align 8
  %69 = load i64, ptr %68, align 4
  %70 = lshr i64 %69, 34
  %71 = and i64 %70, 1
  %72 = trunc i64 %71 to i32
  %73 = xor i32 %67, %72
  %74 = and i32 %66, %73
  %75 = load ptr, ptr %13, align 8
  %76 = zext i32 %74 to i64
  %77 = load i64, ptr %75, align 4
  %78 = and i64 %76, 1
  %79 = shl i64 %78, 34
  %80 = and i64 %77, -17179869185
  %81 = or i64 %80, %79
  store i64 %81, ptr %75, align 4
  %82 = load i32, ptr %9, align 4
  %83 = icmp ne i32 %82, 0
  br i1 %83, label %84, label %90

84:                                               ; preds = %5
  %85 = load ptr, ptr %11, align 8
  %86 = load i64, ptr %85, align 4
  %87 = lshr i64 %86, 36
  %88 = trunc i64 %87 to i32
  %89 = xor i32 %88, -1
  br label %95

90:                                               ; preds = %5
  %91 = load ptr, ptr %11, align 8
  %92 = load i64, ptr %91, align 4
  %93 = lshr i64 %92, 36
  %94 = trunc i64 %93 to i32
  br label %95

95:                                               ; preds = %90, %84
  %96 = phi i32 [ %89, %84 ], [ %94, %90 ]
  %97 = and i32 65535, %96
  %98 = load i32, ptr %10, align 4
  %99 = icmp ne i32 %98, 0
  br i1 %99, label %100, label %106

100:                                              ; preds = %95
  %101 = load ptr, ptr %12, align 8
  %102 = load i64, ptr %101, align 4
  %103 = lshr i64 %102, 36
  %104 = trunc i64 %103 to i32
  %105 = xor i32 %104, -1
  br label %111

106:                                              ; preds = %95
  %107 = load ptr, ptr %12, align 8
  %108 = load i64, ptr %107, align 4
  %109 = lshr i64 %108, 36
  %110 = trunc i64 %109 to i32
  br label %111

111:                                              ; preds = %106, %100
  %112 = phi i32 [ %105, %100 ], [ %110, %106 ]
  %113 = and i32 %97, %112
  %114 = load ptr, ptr %13, align 8
  %115 = zext i32 %113 to i64
  %116 = load i64, ptr %114, align 4
  %117 = and i64 %115, 268435455
  %118 = shl i64 %117, 36
  %119 = and i64 %116, 68719476735
  %120 = or i64 %119, %118
  store i64 %120, ptr %114, align 4
  ret void
}

; Function Attrs: nounwind uwtable
define ptr @Dar_LibAlloc(i32 noundef %0) #0 {
  %2 = alloca i32, align 4
  %3 = alloca [4 x i32], align 16
  %4 = alloca ptr, align 8
  %5 = alloca i32, align 4
  store i32 %0, ptr %2, align 4
  call void @llvm.memcpy.p0.p0.i64(ptr align 16 %3, ptr align 16 @__const.Dar_LibAlloc.uTruths, i64 16, i1 false)
  %6 = call noalias ptr @malloc(i64 noundef 16152) #8
  store ptr %6, ptr %4, align 8
  %7 = load ptr, ptr %4, align 8
  call void @llvm.memset.p0.i64(ptr align 8 %7, i8 0, i64 16152, i1 false)
  %8 = load i32, ptr %2, align 4
  %9 = load ptr, ptr %4, align 8
  %10 = getelementptr inbounds %struct.Dar_Lib_t_, ptr %9, i32 0, i32 1
  store i32 %8, ptr %10, align 8
  %11 = load i32, ptr %2, align 4
  %12 = sext i32 %11 to i64
  %13 = mul i64 8, %12
  %14 = call noalias ptr @malloc(i64 noundef %13) #8
  %15 = load ptr, ptr %4, align 8
  %16 = getelementptr inbounds %struct.Dar_Lib_t_, ptr %15, i32 0, i32 0
  store ptr %14, ptr %16, align 8
  %17 = load ptr, ptr %4, align 8
  %18 = getelementptr inbounds %struct.Dar_Lib_t_, ptr %17, i32 0, i32 0
  %19 = load ptr, ptr %18, align 8
  %20 = load i32, ptr %2, align 4
  %21 = sext i32 %20 to i64
  %22 = mul i64 8, %21
  call void @llvm.memset.p0.i64(ptr align 4 %19, i8 0, i64 %22, i1 false)
  %23 = call ptr @Dar_Permutations(i32 noundef 4)
  %24 = load ptr, ptr %4, align 8
  %25 = getelementptr inbounds %struct.Dar_Lib_t_, ptr %24, i32 0, i32 29
  store ptr %23, ptr %25, align 8
  %26 = load ptr, ptr %4, align 8
  %27 = getelementptr inbounds %struct.Dar_Lib_t_, ptr %26, i32 0, i32 30
  %28 = load ptr, ptr %4, align 8
  %29 = getelementptr inbounds %struct.Dar_Lib_t_, ptr %28, i32 0, i32 31
  %30 = load ptr, ptr %4, align 8
  %31 = getelementptr inbounds %struct.Dar_Lib_t_, ptr %30, i32 0, i32 32
  %32 = load ptr, ptr %4, align 8
  %33 = getelementptr inbounds %struct.Dar_Lib_t_, ptr %32, i32 0, i32 33
  call void @Dar_Truth4VarNPN(ptr noundef %27, ptr noundef %29, ptr noundef %31, ptr noundef %33)
  %34 = load ptr, ptr %4, align 8
  %35 = getelementptr inbounds %struct.Dar_Lib_t_, ptr %34, i32 0, i32 2
  store i32 4, ptr %35, align 4
  store i32 0, ptr %5, align 4
  br label %36

36:                                               ; preds = %65, %1
  %37 = load i32, ptr %5, align 4
  %38 = icmp slt i32 %37, 4
  br i1 %38, label %39, label %68

39:                                               ; preds = %36
  %40 = load ptr, ptr %4, align 8
  %41 = getelementptr inbounds %struct.Dar_Lib_t_, ptr %40, i32 0, i32 0
  %42 = load ptr, ptr %41, align 8
  %43 = load i32, ptr %5, align 4
  %44 = sext i32 %43 to i64
  %45 = getelementptr inbounds %struct.Dar_LibObj_t_, ptr %42, i64 %44
  %46 = load i64, ptr %45, align 4
  %47 = and i64 %46, -34359738369
  %48 = or i64 %47, 34359738368
  store i64 %48, ptr %45, align 4
  %49 = load i32, ptr %5, align 4
  %50 = sext i32 %49 to i64
  %51 = getelementptr inbounds [4 x i32], ptr %3, i64 0, i64 %50
  %52 = load i32, ptr %51, align 4
  %53 = load ptr, ptr %4, align 8
  %54 = getelementptr inbounds %struct.Dar_Lib_t_, ptr %53, i32 0, i32 0
  %55 = load ptr, ptr %54, align 8
  %56 = load i32, ptr %5, align 4
  %57 = sext i32 %56 to i64
  %58 = getelementptr inbounds %struct.Dar_LibObj_t_, ptr %55, i64 %57
  %59 = zext i32 %52 to i64
  %60 = load i64, ptr %58, align 4
  %61 = and i64 %59, 268435455
  %62 = shl i64 %61, 36
  %63 = and i64 %60, 68719476735
  %64 = or i64 %63, %62
  store i64 %64, ptr %58, align 4
  br label %65

65:                                               ; preds = %39
  %66 = load i32, ptr %5, align 4
  %67 = add nsw i32 %66, 1
  store i32 %67, ptr %5, align 4
  br label %36, !llvm.loop !4

68:                                               ; preds = %36
  %69 = load ptr, ptr %4, align 8
  ret ptr %69
}

; Function Attrs: nounwind uwtable
define internal i32 @Vec_IntSize(ptr noundef %0) #0 {
  %2 = alloca ptr, align 8
  store ptr %0, ptr %2, align 8
  %3 = load ptr, ptr %2, align 8
  %4 = getelementptr inbounds %struct.Vec_Int_t_, ptr %3, i32 0, i32 1
  %5 = load i32, ptr %4, align 4
  ret i32 %5
}

; Function Attrs: nounwind uwtable
define ptr @Dar_LibRead() #0 {
  %1 = alloca ptr, align 8
  %2 = alloca ptr, align 8
  %3 = alloca ptr, align 8
  %4 = alloca ptr, align 8
  %5 = alloca i32, align 4
  %6 = call ptr (...) @Dar_LibReadNodes()
  store ptr %6, ptr %1, align 8
  %7 = call ptr (...) @Dar_LibReadOuts()
  store ptr %7, ptr %2, align 8
  %8 = call ptr (...) @Dar_LibReadPrios()
  store ptr %8, ptr %3, align 8
  %9 = load ptr, ptr %1, align 8
  %10 = call i32 @Vec_IntSize(ptr noundef %9)
  %11 = sdiv i32 %10, 2
  %12 = add nsw i32 %11, 4
  %13 = call ptr @Dar_LibAlloc(i32 noundef %12)
  store ptr %13, ptr %4, align 8
  store i32 0, ptr %5, align 4
  br label %14

14:                                               ; preds = %56, %0
  %15 = load i32, ptr %5, align 4
  %16 = load ptr, ptr %1, align 8
  %17 = getelementptr inbounds %struct.Vec_Int_t_, ptr %16, i32 0, i32 1
  %18 = load i32, ptr %17, align 4
  %19 = icmp slt i32 %15, %18
  br i1 %19, label %20, label %59

20:                                               ; preds = %14
  %21 = load ptr, ptr %4, align 8
  %22 = load ptr, ptr %1, align 8
  %23 = getelementptr inbounds %struct.Vec_Int_t_, ptr %22, i32 0, i32 2
  %24 = load ptr, ptr %23, align 8
  %25 = load i32, ptr %5, align 4
  %26 = sext i32 %25 to i64
  %27 = getelementptr inbounds i32, ptr %24, i64 %26
  %28 = load i32, ptr %27, align 4
  %29 = ashr i32 %28, 1
  %30 = load ptr, ptr %1, align 8
  %31 = getelementptr inbounds %struct.Vec_Int_t_, ptr %30, i32 0, i32 2
  %32 = load ptr, ptr %31, align 8
  %33 = load i32, ptr %5, align 4
  %34 = add nsw i32 %33, 1
  %35 = sext i32 %34 to i64
  %36 = getelementptr inbounds i32, ptr %32, i64 %35
  %37 = load i32, ptr %36, align 4
  %38 = ashr i32 %37, 1
  %39 = load ptr, ptr %1, align 8
  %40 = getelementptr inbounds %struct.Vec_Int_t_, ptr %39, i32 0, i32 2
  %41 = load ptr, ptr %40, align 8
  %42 = load i32, ptr %5, align 4
  %43 = sext i32 %42 to i64
  %44 = getelementptr inbounds i32, ptr %41, i64 %43
  %45 = load i32, ptr %44, align 4
  %46 = and i32 %45, 1
  %47 = load ptr, ptr %1, align 8
  %48 = getelementptr inbounds %struct.Vec_Int_t_, ptr %47, i32 0, i32 2
  %49 = load ptr, ptr %48, align 8
  %50 = load i32, ptr %5, align 4
  %51 = add nsw i32 %50, 1
  %52 = sext i32 %51 to i64
  %53 = getelementptr inbounds i32, ptr %49, i64 %52
  %54 = load i32, ptr %53, align 4
  %55 = and i32 %54, 1
  call void @Dar_LibAddNode(ptr noundef %21, i32 noundef %29, i32 noundef %38, i32 noundef %46, i32 noundef %55)
  br label %56

56:                                               ; preds = %20
  %57 = load i32, ptr %5, align 4
  %58 = add nsw i32 %57, 2
  store i32 %58, ptr %5, align 4
  br label %14, !llvm.loop !39

59:                                               ; preds = %14
  %60 = load ptr, ptr %4, align 8
  %61 = load ptr, ptr %2, align 8
  %62 = load ptr, ptr %3, align 8
  call void @Dar_LibSetup(ptr noundef %60, ptr noundef %61, ptr noundef %62)
  %63 = load ptr, ptr %1, align 8
  call void @Vec_IntFree(ptr noundef %63)
  %64 = load ptr, ptr %2, align 8
  call void @Vec_IntFree(ptr noundef %64)
  %65 = load ptr, ptr %3, align 8
  call void @Vec_IntFree(ptr noundef %65)
  %66 = load ptr, ptr %4, align 8
  ret ptr %66
}