; Function Attrs: nounwind uwtable
define noundef ptr @Dar_LibRead() local_unnamed_addr #0 {
  %1 = tail call ptr (...) @Dar_LibReadNodes() #20
  %2 = tail call ptr (...) @Dar_LibReadOuts() #20
  %3 = tail call ptr (...) @Dar_LibReadPrios() #20
  %4 = getelementptr i8, ptr %1, i64 4
  %.val = load i32, ptr %4, align 4
  %5 = sdiv i32 %.val, 2
  %6 = add nsw i32 %5, 4
  %calloc.i = tail call dereferenceable_or_null(16152) ptr @calloc(i64 1, i64 16152)
  %7 = getelementptr inbounds nuw i8, ptr %calloc.i, i64 8
  store i32 %6, ptr %7, align 8
  %8 = sext i32 %6 to i64
  %9 = shl nsw i64 %8, 3
  %calloc22.i = tail call ptr @calloc(i64 1, i64 %9)
  store ptr %calloc22.i, ptr %calloc.i, align 8
  %10 = tail call ptr @Dar_Permutations(i32 noundef 4) #20
  %11 = getelementptr inbounds nuw i8, ptr %calloc.i, i64 16112
  store ptr %10, ptr %11, align 8
  %12 = getelementptr inbounds nuw i8, ptr %calloc.i, i64 16120
  %13 = getelementptr inbounds nuw i8, ptr %calloc.i, i64 16128
  %14 = getelementptr inbounds nuw i8, ptr %calloc.i, i64 16136
  %15 = getelementptr inbounds nuw i8, ptr %calloc.i, i64 16144
  tail call void @Dar_Truth4VarNPN(ptr noundef nonnull %12, ptr noundef nonnull %13, ptr noundef nonnull %14, ptr noundef nonnull %15) #20
  %16 = getelementptr inbounds nuw i8, ptr %calloc.i, i64 12
  store i32 4, ptr %16, align 4
  br label %17

17:                                               ; preds = %17, %0
  %indvars.iv.i = phi i64 [ 0, %0 ], [ %indvars.iv.next.i, %17 ]
  %18 = load ptr, ptr %calloc.i, align 8
  %19 = getelementptr inbounds nuw %struct.Dar_LibObj_t_, ptr %18, i64 %indvars.iv.i
  %20 = load i64, ptr %19, align 4
  %21 = or i64 %20, 34359738368
  store i64 %21, ptr %19, align 4
  %22 = getelementptr inbounds nuw [4 x i32], ptr @__const.Dar_LibAlloc.uTruths, i64 0, i64 %indvars.iv.i
  %23 = load i32, ptr %22, align 4
  %24 = load ptr, ptr %calloc.i, align 8
  %25 = getelementptr inbounds nuw %struct.Dar_LibObj_t_, ptr %24, i64 %indvars.iv.i
  %26 = load i64, ptr %25, align 4
  %27 = and i32 %23, 268435455
  %28 = zext nneg i32 %27 to i64
  %29 = shl nuw i64 %28, 36
  %30 = and i64 %26, 68719476735
  %31 = or disjoint i64 %30, %29
  store i64 %31, ptr %25, align 4
  %indvars.iv.next.i = add nuw nsw i64 %indvars.iv.i, 1
  %exitcond.not.i = icmp eq i64 %indvars.iv.next.i, 4
  br i1 %exitcond.not.i, label %Dar_LibAlloc.exit.preheader, label %17, !llvm.loop !4

Dar_LibAlloc.exit.preheader:                      ; preds = %17
  %32 = load i32, ptr %4, align 4
  %33 = icmp sgt i32 %32, 0
  br i1 %33, label %.lr.ph, label %Dar_LibAlloc.exit._crit_edge

.lr.ph:                                           ; preds = %Dar_LibAlloc.exit.preheader
  %34 = getelementptr inbounds nuw i8, ptr %1, i64 8
  br label %Dar_LibAlloc.exit

Dar_LibAlloc.exit:                                ; preds = %.lr.ph, %Dar_LibAlloc.exit
  %indvars.iv = phi i64 [ 0, %.lr.ph ], [ %indvars.iv.next, %Dar_LibAlloc.exit ]
  %35 = load ptr, ptr %34, align 8
  %36 = getelementptr inbounds nuw i32, ptr %35, i64 %indvars.iv
  %37 = load i32, ptr %36, align 4
  %38 = ashr i32 %37, 1
  %39 = or disjoint i64 %indvars.iv, 1
  %40 = getelementptr inbounds nuw i32, ptr %35, i64 %39
  %41 = load i32, ptr %40, align 4
  %42 = ashr i32 %41, 1
  %43 = and i32 %37, 1
  %44 = and i32 %41, 1
  %.val.i = load ptr, ptr %calloc.i, align 8
  %45 = sext i32 %38 to i64
  %46 = getelementptr inbounds %struct.Dar_LibObj_t_, ptr %.val.i, i64 %45
  %47 = sext i32 %42 to i64
  %48 = getelementptr inbounds %struct.Dar_LibObj_t_, ptr %.val.i, i64 %47
  %49 = load i32, ptr %16, align 4
  %50 = add nsw i32 %49, 1
  store i32 %50, ptr %16, align 4
  %51 = sext i32 %49 to i64
  %52 = getelementptr inbounds %struct.Dar_LibObj_t_, ptr %.val.i, i64 %51
  %53 = load i64, ptr %52, align 4
  %54 = and i64 %53, -17179869184
  %55 = shl i32 %42, 16
  %56 = and i32 %38, 65535
  %57 = zext nneg i32 %43 to i64
  %58 = shl nuw nsw i64 %57, 32
  %59 = zext nneg i32 %44 to i64
  %60 = shl nuw nsw i64 %59, 33
  %61 = or disjoint i32 %55, %56
  %62 = zext i32 %61 to i64
  %63 = or disjoint i64 %58, %62
  %64 = or disjoint i64 %63, %60
  %65 = or disjoint i64 %64, %54
  store i64 %65, ptr %52, align 4
  %66 = load i64, ptr %46, align 4
  %67 = lshr i64 %66, 34
  %68 = trunc nuw nsw i64 %67 to i32
  %69 = xor i32 %37, %68
  %70 = load i64, ptr %48, align 4
  %71 = lshr i64 %70, 34
  %72 = trunc nuw nsw i64 %71 to i32
  %73 = xor i32 %44, %72
  %74 = and i32 %69, 1
  %75 = and i32 %74, %73
  %76 = zext nneg i32 %75 to i64
  %77 = shl nuw nsw i64 %76, 34
  %78 = and i64 %65, -17179869185
  %79 = or disjoint i64 %77, %78
  store i64 %79, ptr %52, align 4
  %80 = load i64, ptr %46, align 4
  %sext = sub nsw i32 0, %43
  %81 = sext i32 %sext to i64
  %82 = xor i64 %80, %81
  %.not25.i = icmp eq i32 %44, 0
  %83 = load i64, ptr %48, align 4
  %84 = xor i64 %83, -68719476736
  %85 = select i1 %.not25.i, i64 %83, i64 %84
  %86 = and i64 %82, 4503530907893760
  %87 = and i64 %86, %85
  %88 = and i64 %79, 68719476735
  %89 = or disjoint i64 %88, %87
  store i64 %89, ptr %52, align 4
  %indvars.iv.next = add nuw nsw i64 %indvars.iv, 2
  %90 = load i32, ptr %4, align 4
  %91 = sext i32 %90 to i64
  %92 = icmp slt i64 %indvars.iv.next, %91
  br i1 %92, label %Dar_LibAlloc.exit, label %Dar_LibAlloc.exit._crit_edge, !llvm.loop !31

Dar_LibAlloc.exit._crit_edge:                     ; preds = %Dar_LibAlloc.exit, %Dar_LibAlloc.exit.preheader
  tail call void @Dar_LibSetup(ptr noundef nonnull %calloc.i, ptr noundef %2, ptr noundef %3)
  %93 = getelementptr inbounds nuw i8, ptr %1, i64 8
  %94 = load ptr, ptr %93, align 8
  %.not.i19 = icmp eq ptr %94, null
  br i1 %.not.i19, label %Vec_IntFree.exit, label %95

95:                                               ; preds = %Dar_LibAlloc.exit._crit_edge
  tail call void @free(ptr noundef nonnull %94) #20
  br label %Vec_IntFree.exit

Vec_IntFree.exit:                                 ; preds = %Dar_LibAlloc.exit._crit_edge, %95
  tail call void @free(ptr noundef nonnull %1) #20
  %96 = getelementptr inbounds nuw i8, ptr %2, i64 8
  %97 = load ptr, ptr %96, align 8
  %.not.i20 = icmp eq ptr %97, null
  br i1 %.not.i20, label %Vec_IntFree.exit21, label %98

98:                                               ; preds = %Vec_IntFree.exit
  tail call void @free(ptr noundef nonnull %97) #20
  br label %Vec_IntFree.exit21

Vec_IntFree.exit21:                               ; preds = %Vec_IntFree.exit, %98
  tail call void @free(ptr noundef nonnull %2) #20
  %99 = getelementptr inbounds nuw i8, ptr %3, i64 8
  %100 = load ptr, ptr %99, align 8
  %.not.i22 = icmp eq ptr %100, null
  br i1 %.not.i22, label %Vec_IntFree.exit23, label %101

101:                                              ; preds = %Vec_IntFree.exit21
  tail call void @free(ptr noundef nonnull %100) #20
  br label %Vec_IntFree.exit23

Vec_IntFree.exit23:                               ; preds = %Vec_IntFree.exit21, %101
  tail call void @free(ptr noundef nonnull %3) #20
  ret ptr %calloc.i
}